; Function Attrs: mustprogress nounwind uwtable
define hidden void @_ZN17C2_MacroAssembler7vshiftqEi11XMMRegisterS0_(ptr noundef nonnull align 8 dereferenceable(40) %0, i32 noundef %1, i32 %2, i32 %3) local_unnamed_addr #0 align 2 {
  switch i32 %1, label %8 [
    i32 408, label %5
    i32 404, label %6
    i32 412, label %7
  ]

5:                                                ; preds = %4
  tail call void @_ZN9Assembler5psrlqE11XMMRegisterS0_(ptr noundef nonnull align 8 dereferenceable(40) %0, i32 %2, i32 %3) #11
  br label %8

6:                                                ; preds = %4
  tail call void @_ZN9Assembler5psllqE11XMMRegisterS0_(ptr noundef nonnull align 8 dereferenceable(40) %0, i32 %2, i32 %3) #11
  br label %8

7:                                                ; preds = %4
  tail call void @_ZN9Assembler5psrlqE11XMMRegisterS0_(ptr noundef nonnull align 8 dereferenceable(40) %0, i32 %2, i32 %3) #11
  br label %8

8:                                                ; preds = %4, %7, %6, %5
  ret void
}